target datalayout = "e-m:e-p270:32:32-p271:32:32-p272:64:64-i64:64-i128:128-f80:128-n8:16:32:64-S128"
target triple = "x86_64-pc-linux-gnu"

%struct.gmx_membed_t = type { i32, i32, float, float, [3 x float], ptr, ptr }
%struct.pos_ins_t = type { [3 x float], [3 x float], ptr, i32, ptr, ptr }

; Function Attrs: mustprogress nounwind uwtable
define internal void @_ZL6resizePA3_fS0_P9pos_ins_tPKf(ptr noundef %0, ptr noundef %1, ptr noundef %2, ptr noundef %3) #1 {
  %5 = alloca ptr, align 8
  %6 = alloca ptr, align 8
  %7 = alloca ptr, align 8
  %8 = alloca ptr, align 8
  %9 = alloca i32, align 4
  %10 = alloca i32, align 4
  %11 = alloca i32, align 4
  %12 = alloca i32, align 4
  %13 = alloca i32, align 4
  store ptr %0, ptr %5, align 8, !tbaa !11
  store ptr %1, ptr %6, align 8, !tbaa !11
  store ptr %2, ptr %7, align 8, !tbaa !22
  store ptr %3, ptr %8, align 8, !tbaa !11
  call void @llvm.lifetime.start.p0(i64 4, ptr %9) #21
  call void @llvm.lifetime.start.p0(i64 4, ptr %10) #21
  call void @llvm.lifetime.start.p0(i64 4, ptr %11) #21
  call void @llvm.lifetime.start.p0(i64 4, ptr %12) #21
  call void @llvm.lifetime.start.p0(i64 4, ptr %13) #21
  store i32 0, ptr %13, align 4, !tbaa !4
  store i32 0, ptr %11, align 4, !tbaa !4
  br label %14

14:                                               ; preds = %99, %4
  %15 = load i32, ptr %11, align 4, !tbaa !4
  %16 = load ptr, ptr %7, align 8, !tbaa !22
  %17 = getelementptr inbounds nuw %struct.pos_ins_t, ptr %16, i32 0, i32 3
  %18 = load i32, ptr %17, align 8, !tbaa !23
  %19 = icmp slt i32 %15, %18
  br i1 %19, label %20, label %102

20:                                               ; preds = %14
  store i32 0, ptr %9, align 4, !tbaa !4
  br label %21

21:                                               ; preds = %95, %20
  %22 = load i32, ptr %9, align 4, !tbaa !4
  %23 = load ptr, ptr %7, align 8, !tbaa !22
  %24 = getelementptr inbounds nuw %struct.pos_ins_t, ptr %23, i32 0, i32 4
  %25 = load ptr, ptr %24, align 8, !tbaa !28
  %26 = load i32, ptr %11, align 4, !tbaa !4
  %27 = sext i32 %26 to i64
  %28 = getelementptr inbounds i32, ptr %25, i64 %27
  %29 = load i32, ptr %28, align 4, !tbaa !4
  %30 = icmp slt i32 %22, %29
  br i1 %30, label %31, label %98

31:                                               ; preds = %21
  %32 = load ptr, ptr %7, align 8, !tbaa !22
  %33 = getelementptr inbounds nuw %struct.pos_ins_t, ptr %32, i32 0, i32 5
  %34 = load ptr, ptr %33, align 8, !tbaa !29
  %35 = load i32, ptr %11, align 4, !tbaa !4
  %36 = sext i32 %35 to i64
  %37 = getelementptr inbounds ptr, ptr %34, i64 %36
  %38 = load ptr, ptr %37, align 8, !tbaa !30
  %39 = load i32, ptr %9, align 4, !tbaa !4
  %40 = sext i32 %39 to i64
  %41 = getelementptr inbounds i32, ptr %38, i64 %40
  %42 = load i32, ptr %41, align 4, !tbaa !4
  store i32 %42, ptr %12, align 4, !tbaa !4
  store i32 0, ptr %10, align 4, !tbaa !4
  br label %43

43:                                               ; preds = %89, %31
  %44 = load i32, ptr %10, align 4, !tbaa !4
  %45 = icmp slt i32 %44, 3
  br i1 %45, label %46, label %92

46:                                               ; preds = %43
  %47 = load ptr, ptr %7, align 8, !tbaa !22
  %48 = getelementptr inbounds nuw %struct.pos_ins_t, ptr %47, i32 0, i32 2
  %49 = load ptr, ptr %48, align 8, !tbaa !31
  %50 = load i32, ptr %11, align 4, !tbaa !4
  %51 = sext i32 %50 to i64
  %52 = getelementptr inbounds [3 x float], ptr %49, i64 %51
  %53 = load i32, ptr %10, align 4, !tbaa !4
  %54 = sext i32 %53 to i64
  %55 = getelementptr inbounds [3 x float], ptr %52, i64 0, i64 %54
  %56 = load float, ptr %55, align 4, !tbaa !17
  %57 = load ptr, ptr %8, align 8, !tbaa !11
  %58 = load i32, ptr %10, align 4, !tbaa !4
  %59 = sext i32 %58 to i64
  %60 = getelementptr inbounds float, ptr %57, i64 %59
  %61 = load float, ptr %60, align 4, !tbaa !17
  %62 = load ptr, ptr %5, align 8, !tbaa !11
  %63 = load i32, ptr %13, align 4, !tbaa !4
  %64 = sext i32 %63 to i64
  %65 = getelementptr inbounds [3 x float], ptr %62, i64 %64
  %66 = load i32, ptr %10, align 4, !tbaa !4
  %67 = sext i32 %66 to i64
  %68 = getelementptr inbounds [3 x float], ptr %65, i64 0, i64 %67
  %69 = load float, ptr %68, align 4, !tbaa !17
  %70 = load ptr, ptr %7, align 8, !tbaa !22
  %71 = getelementptr inbounds nuw %struct.pos_ins_t, ptr %70, i32 0, i32 2
  %72 = load ptr, ptr %71, align 8, !tbaa !31
  %73 = load i32, ptr %11, align 4, !tbaa !4
  %74 = sext i32 %73 to i64
  %75 = getelementptr inbounds [3 x float], ptr %72, i64 %74
  %76 = load i32, ptr %10, align 4, !tbaa !4
  %77 = sext i32 %76 to i64
  %78 = getelementptr inbounds [3 x float], ptr %75, i64 0, i64 %77
  %79 = load float, ptr %78, align 4, !tbaa !17
  %80 = fsub float %69, %79
  %81 = call float @llvm.fmuladd.f32(float %61, float %80, float %56)
  %82 = load ptr, ptr %6, align 8, !tbaa !11
  %83 = load i32, ptr %12, align 4, !tbaa !4
  %84 = sext i32 %83 to i64
  %85 = getelementptr inbounds [3 x float], ptr %82, i64 %84
  %86 = load i32, ptr %10, align 4, !tbaa !4
  %87 = sext i32 %86 to i64
  %88 = getelementptr inbounds [3 x float], ptr %85, i64 0, i64 %87
  store float %81, ptr %88, align 4, !tbaa !17
  br label %89

89:                                               ; preds = %46
  %90 = load i32, ptr %10, align 4, !tbaa !4
  %91 = add nsw i32 %90, 1
  store i32 %91, ptr %10, align 4, !tbaa !4
  br label %43, !llvm.loop !32

92:                                               ; preds = %43
  %93 = load i32, ptr %13, align 4, !tbaa !4
  %94 = add nsw i32 %93, 1
  store i32 %94, ptr %13, align 4, !tbaa !4
  br label %95

95:                                               ; preds = %92
  %96 = load i32, ptr %9, align 4, !tbaa !4
  %97 = add nsw i32 %96, 1
  store i32 %97, ptr %9, align 4, !tbaa !4
  br label %21, !llvm.loop !34

98:                                               ; preds = %21
  br label %99

99:                                               ; preds = %98
  %100 = load i32, ptr %11, align 4, !tbaa !4
  %101 = add nsw i32 %100, 1
  store i32 %101, ptr %11, align 4, !tbaa !4
  br label %14, !llvm.loop !35

102:                                              ; preds = %14
  call void @llvm.lifetime.end.p0(i64 4, ptr %13) #21
  call void @llvm.lifetime.end.p0(i64 4, ptr %12) #21
  call void @llvm.lifetime.end.p0(i64 4, ptr %11) #21
  call void @llvm.lifetime.end.p0(i64 4, ptr %10) #21
  call void @llvm.lifetime.end.p0(i64 4, ptr %9) #21
  ret void
}

; Function Attrs: mustprogress uwtable
define void @_Z14rescale_membediP12gmx_membed_tPA3_f(i32 noundef %0, ptr noundef %1, ptr noundef %2) #0 {
  %4 = alloca i32, align 4
  %5 = alloca ptr, align 8
  %6 = alloca ptr, align 8
  store i32 %0, ptr %4, align 4, !tbaa !4
  store ptr %1, ptr %5, align 8, !tbaa !8
  store ptr %2, ptr %6, align 8, !tbaa !11
  %7 = load i32, ptr %4, align 4, !tbaa !4
  %8 = load ptr, ptr %5, align 8, !tbaa !8
  %9 = getelementptr inbounds nuw %struct.gmx_membed_t, ptr %8, i32 0, i32 0
  %10 = load i32, ptr %9, align 8, !tbaa !13
  %11 = icmp sle i32 %7, %10
  br i1 %11, label %12, label %29

12:                                               ; preds = %3
  %13 = load ptr, ptr %5, align 8, !tbaa !8
  %14 = getelementptr inbounds nuw %struct.gmx_membed_t, ptr %13, i32 0, i32 2
  %15 = load float, ptr %14, align 8, !tbaa !16
  %16 = load ptr, ptr %5, align 8, !tbaa !8
  %17 = getelementptr inbounds nuw %struct.gmx_membed_t, ptr %16, i32 0, i32 4
  %18 = getelementptr inbounds [3 x float], ptr %17, i64 0, i64 0
  %19 = load float, ptr %18, align 8, !tbaa !17
  %20 = fadd float %19, %15
  store float %20, ptr %18, align 8, !tbaa !17
  %21 = load ptr, ptr %5, align 8, !tbaa !8
  %22 = getelementptr inbounds nuw %struct.gmx_membed_t, ptr %21, i32 0, i32 2
  %23 = load float, ptr %22, align 8, !tbaa !16
  %24 = load ptr, ptr %5, align 8, !tbaa !8
  %25 = getelementptr inbounds nuw %struct.gmx_membed_t, ptr %24, i32 0, i32 4
  %26 = getelementptr inbounds [3 x float], ptr %25, i64 0, i64 1
  %27 = load float, ptr %26, align 4, !tbaa !17
  %28 = fadd float %27, %23
  store float %28, ptr %26, align 4, !tbaa !17
  br label %49

29:                                               ; preds = %3
  %30 = load i32, ptr %4, align 4, !tbaa !4
  %31 = load ptr, ptr %5, align 8, !tbaa !8
  %32 = getelementptr inbounds nuw %struct.gmx_membed_t, ptr %31, i32 0, i32 0
  %33 = load i32, ptr %32, align 8, !tbaa !13
  %34 = load ptr, ptr %5, align 8, !tbaa !8
  %35 = getelementptr inbounds nuw %struct.gmx_membed_t, ptr %34, i32 0, i32 1
  %36 = load i32, ptr %35, align 4, !tbaa !18
  %37 = add nsw i32 %33, %36
  %38 = icmp sle i32 %30, %37
  br i1 %38, label %39, label %48

39:                                               ; preds = %29
  %40 = load ptr, ptr %5, align 8, !tbaa !8
  %41 = getelementptr inbounds nuw %struct.gmx_membed_t, ptr %40, i32 0, i32 3
  %42 = load float, ptr %41, align 4, !tbaa !19
  %43 = load ptr, ptr %5, align 8, !tbaa !8
  %44 = getelementptr inbounds nuw %struct.gmx_membed_t, ptr %43, i32 0, i32 4
  %45 = getelementptr inbounds [3 x float], ptr %44, i64 0, i64 2
  %46 = load float, ptr %45, align 8, !tbaa !17
  %47 = fadd float %46, %42
  store float %47, ptr %45, align 8, !tbaa !17
  br label %48

48:                                               ; preds = %39, %29
  br label %49

49:                                               ; preds = %48, %12
  %50 = load ptr, ptr %5, align 8, !tbaa !8
  %51 = getelementptr inbounds nuw %struct.gmx_membed_t, ptr %50, i32 0, i32 5
  %52 = load ptr, ptr %51, align 8, !tbaa !20
  %53 = load ptr, ptr %6, align 8, !tbaa !11
  %54 = load ptr, ptr %5, align 8, !tbaa !8
  %55 = getelementptr inbounds nuw %struct.gmx_membed_t, ptr %54, i32 0, i32 6
  %56 = load ptr, ptr %55, align 8, !tbaa !21
  %57 = load ptr, ptr %5, align 8, !tbaa !8
  %58 = getelementptr inbounds nuw %struct.gmx_membed_t, ptr %57, i32 0, i32 4
  %59 = getelementptr inbounds [3 x float], ptr %58, i64 0, i64 0
  call void @_ZL6resizePA3_fS0_P9pos_ins_tPKf(ptr noundef %52, ptr noundef %53, ptr noundef %56, ptr noundef %59)
  ret void
}