; Function Attrs: mustprogress nofree norecurse nosync nounwind memory(read, argmem: readwrite, inaccessiblemem: none) uwtable
define void @_Z14rescale_membediP12gmx_membed_tPA3_f(i32 noundef %0, ptr noundef captures(none) %1, ptr noundef writeonly captures(none) %2) local_unnamed_addr #0 {
  %4 = load i32, ptr %1, align 8, !tbaa !4
  %.not = icmp sgt i32 %0, %4
  br i1 %.not, label %14, label %5

5:                                                ; preds = %3
  %6 = getelementptr inbounds nuw i8, ptr %1, i64 8
  %7 = load float, ptr %6, align 8, !tbaa !12
  %8 = getelementptr inbounds nuw i8, ptr %1, i64 16
  %9 = load float, ptr %8, align 8, !tbaa !13
  %10 = fadd float %7, %9
  store float %10, ptr %8, align 8, !tbaa !13
  %11 = getelementptr inbounds nuw i8, ptr %1, i64 20
  %12 = load float, ptr %11, align 4, !tbaa !13
  %13 = fadd float %7, %12
  store float %13, ptr %11, align 4, !tbaa !13
  br label %24

14:                                               ; preds = %3
  %15 = getelementptr inbounds nuw i8, ptr %1, i64 4
  %16 = load i32, ptr %15, align 4, !tbaa !14
  %17 = add nsw i32 %16, %4
  %.not15 = icmp sgt i32 %0, %17
  br i1 %.not15, label %24, label %18

18:                                               ; preds = %14
  %19 = getelementptr inbounds nuw i8, ptr %1, i64 12
  %20 = load float, ptr %19, align 4, !tbaa !15
  %21 = getelementptr inbounds nuw i8, ptr %1, i64 24
  %22 = load float, ptr %21, align 8, !tbaa !13
  %23 = fadd float %20, %22
  store float %23, ptr %21, align 8, !tbaa !13
  br label %24

24:                                               ; preds = %14, %18, %5
  %25 = getelementptr inbounds nuw i8, ptr %1, i64 32
  %26 = load ptr, ptr %25, align 8, !tbaa !16
  %27 = getelementptr inbounds nuw i8, ptr %1, i64 40
  %28 = load ptr, ptr %27, align 8, !tbaa !17
  %29 = getelementptr inbounds nuw i8, ptr %1, i64 16
  %30 = getelementptr inbounds nuw i8, ptr %28, i64 32
  %31 = load i32, ptr %30, align 8, !tbaa !18
  %32 = icmp sgt i32 %31, 0
  br i1 %32, label %.preheader.lr.ph.i, label %_ZL6resizePA3_fS0_P9pos_ins_tPKf.exit

.preheader.lr.ph.i:                               ; preds = %24
  %33 = getelementptr inbounds nuw i8, ptr %28, i64 40
  %34 = load ptr, ptr %33, align 8, !tbaa !23
  %35 = getelementptr inbounds nuw i8, ptr %28, i64 48
  %36 = getelementptr inbounds nuw i8, ptr %28, i64 24
  %wide.trip.count47.i = zext nneg i32 %31 to i64
  br label %.preheader.i

.preheader.i:                                     ; preds = %._crit_edge.i, %.preheader.lr.ph.i
  %indvars.iv44.i = phi i64 [ 0, %.preheader.lr.ph.i ], [ %indvars.iv.next45.i, %._crit_edge.i ]
  %.033.i = phi i32 [ 0, %.preheader.lr.ph.i ], [ %.1.lcssa.i, %._crit_edge.i ]
  %37 = getelementptr inbounds nuw i32, ptr %34, i64 %indvars.iv44.i
  %38 = load i32, ptr %37, align 4, !tbaa !24
  %39 = icmp sgt i32 %38, 0
  br i1 %39, label %.lr.ph.i, label %._crit_edge.i

.lr.ph.i:                                         ; preds = %.preheader.i
  %40 = load ptr, ptr %35, align 8, !tbaa !25
  %41 = getelementptr inbounds nuw ptr, ptr %40, i64 %indvars.iv44.i
  %42 = load ptr, ptr %41, align 8, !tbaa !26
  %43 = load ptr, ptr %36, align 8, !tbaa !27
  %44 = sext i32 %.033.i to i64
  %wide.trip.count.i = zext nneg i32 %38 to i64
  br label %45

45:                                               ; preds = %59, %.lr.ph.i
  %indvars.iv38.i = phi i64 [ 0, %.lr.ph.i ], [ %indvars.iv.next39.i, %59 ]
  %indvars.iv36.i = phi i64 [ %44, %.lr.ph.i ], [ %indvars.iv.next37.i, %59 ]
  %46 = getelementptr inbounds nuw i32, ptr %42, i64 %indvars.iv38.i
  %47 = load i32, ptr %46, align 4, !tbaa !24
  %48 = sext i32 %47 to i64
  br label %49

49:                                               ; preds = %49, %45
  %indvars.iv.i = phi i64 [ 0, %45 ], [ %indvars.iv.next.i, %49 ]
  %50 = getelementptr inbounds nuw [3 x float], ptr %43, i64 %indvars.iv44.i, i64 %indvars.iv.i
  %51 = load float, ptr %50, align 4, !tbaa !13
  %52 = getelementptr inbounds nuw float, ptr %29, i64 %indvars.iv.i
  %53 = load float, ptr %52, align 4, !tbaa !13
  %54 = getelementptr inbounds [3 x float], ptr %26, i64 %indvars.iv36.i, i64 %indvars.iv.i
  %55 = load float, ptr %54, align 4, !tbaa !13
  %56 = fsub float %55, %51
  %57 = tail call float @llvm.fmuladd.f32(float %53, float %56, float %51)
  %58 = getelementptr inbounds [3 x float], ptr %2, i64 %48, i64 %indvars.iv.i
  store float %57, ptr %58, align 4, !tbaa !13
  %indvars.iv.next.i = add nuw nsw i64 %indvars.iv.i, 1
  %exitcond.not.i = icmp eq i64 %indvars.iv.next.i, 3
  br i1 %exitcond.not.i, label %59, label %49, !llvm.loop !28

59:                                               ; preds = %49
  %indvars.iv.next37.i = add nsw i64 %indvars.iv36.i, 1
  %indvars.iv.next39.i = add nuw nsw i64 %indvars.iv38.i, 1
  %exitcond43.not.i = icmp eq i64 %indvars.iv.next39.i, %wide.trip.count.i
  br i1 %exitcond43.not.i, label %._crit_edge.loopexit.i, label %45, !llvm.loop !30

._crit_edge.loopexit.i:                           ; preds = %59
  %60 = trunc nsw i64 %indvars.iv.next37.i to i32
  br label %._crit_edge.i

._crit_edge.i:                                    ; preds = %._crit_edge.loopexit.i, %.preheader.i
  %.1.lcssa.i = phi i32 [ %.033.i, %.preheader.i ], [ %60, %._crit_edge.loopexit.i ]
  %indvars.iv.next45.i = add nuw nsw i64 %indvars.iv44.i, 1
  %exitcond48.not.i = icmp eq i64 %indvars.iv.next45.i, %wide.trip.count47.i
  br i1 %exitcond48.not.i, label %_ZL6resizePA3_fS0_P9pos_ins_tPKf.exit, label %.preheader.i, !llvm.loop !31

_ZL6resizePA3_fS0_P9pos_ins_tPKf.exit:            ; preds = %._crit_edge.i, %24
  ret void
}